target datalayout = "e-m:e-p270:32:32-p271:32:32-p272:64:64-i64:64-i128:128-f80:128-n8:16:32:64-S128"
target triple = "x86_64-pc-linux-gnu"

%union.pthread_cond_t = type { %struct.__pthread_cond_s }
%struct.__pthread_cond_s = type { %union.__atomic_wide_counter, %union.__atomic_wide_counter, [2 x i32], [2 x i32], i32, i32, [2 x i32] }
%union.__atomic_wide_counter = type { i64 }
%union.pthread_mutex_t = type { %struct.__pthread_mutex_s }
%struct.__pthread_mutex_s = type { i32, i32, i32, i32, i32, i16, i16, %struct.__pthread_internal_list }
%struct.__pthread_internal_list = type { ptr, ptr }
%struct.slurmctld_config = type { ptr, %union.pthread_cond_t, %union.pthread_mutex_t, %union.pthread_cond_t, %union.pthread_mutex_t, i64, [64 x i8], [64 x i8], i8, i8, i32, i64, i8, %union.pthread_cond_t, %union.pthread_mutex_t, i64, i64, i64, i64 }

@slurmctld_config = dso_local global { ptr, %union.pthread_cond_t, %union.pthread_mutex_t, %union.pthread_cond_t, %union.pthread_mutex_t, i64, [64 x i8], [64 x i8], i8, i8, [2 x i8], i32, i64, i8, [7 x i8], %union.pthread_cond_t, %union.pthread_mutex_t, i64, i64, i64, i64 } zeroinitializer, align 8
@.str.43 = private unnamed_addr constant [29 x i8] c"%s: pthread_mutex_lock(): %m\00", align 1
@.str.44 = private unnamed_addr constant [31 x i8] c"%s: pthread_mutex_unlock(): %m\00", align 1
@.str.59 = private unnamed_addr constant [13 x i8] c"controller.c\00", align 1
@.str.61 = private unnamed_addr constant [39 x i8] c"%s:%d %s: pthread_cond_broadcast(): %m\00", align 1
@__func__.server_thread_decr = private unnamed_addr constant [19 x i8] c"server_thread_decr\00", align 1
@.str.68 = private unnamed_addr constant [47 x i8] c"slurmctld_config.server_thread_count underflow\00", align 1

; Function Attrs: nounwind uwtable
define dso_local void @server_thread_decr() #0 {
  %1 = alloca i32, align 4
  %2 = alloca i32, align 4
  %3 = alloca i32, align 4
  br label %4

4:                                                ; preds = %0
  call void @llvm.lifetime.start.p0(i64 4, ptr %1) #11
  %5 = call i32 @pthread_mutex_lock(ptr noundef getelementptr inbounds nuw (%struct.slurmctld_config, ptr @slurmctld_config, i32 0, i32 14)) #11
  store i32 %5, ptr %1, align 4
  %6 = load i32, ptr %1, align 4
  %7 = icmp ne i32 %6, 0
  br i1 %7, label %8, label %11

8:                                                ; preds = %4
  %9 = load i32, ptr %1, align 4
  %10 = call ptr @__errno_location() #14
  store i32 %9, ptr %10, align 4
  call void (ptr, ...) @fatal_abort(ptr noundef @.str.43, ptr noundef @__func__.server_thread_decr) #12
  unreachable

11:                                               ; preds = %4
  call void @llvm.lifetime.end.p0(i64 4, ptr %1) #11
  br label %12

12:                                               ; preds = %11
  %13 = load i32, ptr getelementptr inbounds nuw (%struct.slurmctld_config, ptr @slurmctld_config, i32 0, i32 10), align 4
  %14 = icmp sgt i32 %13, 0
  br i1 %14, label %15, label %18

15:                                               ; preds = %12
  %16 = load i32, ptr getelementptr inbounds nuw (%struct.slurmctld_config, ptr @slurmctld_config, i32 0, i32 10), align 4
  %17 = add nsw i32 %16, -1
  store i32 %17, ptr getelementptr inbounds nuw (%struct.slurmctld_config, ptr @slurmctld_config, i32 0, i32 10), align 4
  br label %20

18:                                               ; preds = %12
  %19 = call i32 (ptr, ...) @error(ptr noundef @.str.68)
  br label %20

20:                                               ; preds = %18, %15
  br label %21

21:                                               ; preds = %20
  call void @llvm.lifetime.start.p0(i64 4, ptr %2) #11
  %22 = call i32 @pthread_cond_broadcast(ptr noundef getelementptr inbounds nuw (%struct.slurmctld_config, ptr @slurmctld_config, i32 0, i32 13)) #11
  store i32 %22, ptr %2, align 4
  %23 = load i32, ptr %2, align 4
  %24 = icmp ne i32 %23, 0
  br i1 %24, label %25, label %29

25:                                               ; preds = %21
  %26 = load i32, ptr %2, align 4
  %27 = call ptr @__errno_location() #14
  store i32 %26, ptr %27, align 4
  %28 = call i32 (ptr, ...) @error(ptr noundef @.str.61, ptr noundef @.str.59, i32 noundef 1753, ptr noundef @__func__.server_thread_decr)
  br label %29

29:                                               ; preds = %25, %21
  call void @llvm.lifetime.end.p0(i64 4, ptr %2) #11
  br label %30

30:                                               ; preds = %29
  br label %31

31:                                               ; preds = %30
  call void @llvm.lifetime.start.p0(i64 4, ptr %3) #11
  %32 = call i32 @pthread_mutex_unlock(ptr noundef getelementptr inbounds nuw (%struct.slurmctld_config, ptr @slurmctld_config, i32 0, i32 14)) #11
  store i32 %32, ptr %3, align 4
  %33 = load i32, ptr %3, align 4
  %34 = icmp ne i32 %33, 0
  br i1 %34, label %35, label %38

35:                                               ; preds = %31
  %36 = load i32, ptr %3, align 4
  %37 = call ptr @__errno_location() #14
  store i32 %36, ptr %37, align 4
  call void (ptr, ...) @fatal_abort(ptr noundef @.str.44, ptr noundef @__func__.server_thread_decr) #12
  unreachable

38:                                               ; preds = %31
  call void @llvm.lifetime.end.p0(i64 4, ptr %3) #11
  br label %39

39:                                               ; preds = %38
  ret void
}