; Function Attrs: nounwind uwtable
define dso_local void @server_thread_decr() local_unnamed_addr #6 {
  %1 = tail call i32 @pthread_mutex_lock(ptr noundef nonnull getelementptr inbounds nuw (i8, ptr @slurmctld_config, i64 392)) #19
  %.not = icmp eq i32 %1, 0
  br i1 %.not, label %4, label %2

2:                                                ; preds = %0
  %3 = tail call ptr @__errno_location() #21
  store i32 %1, ptr %3, align 4
  tail call void (ptr, ...) @fatal_abort(ptr noundef nonnull @.str.43, ptr noundef nonnull @__func__.server_thread_decr) #20
  unreachable

4:                                                ; preds = %0
  %5 = load i32, ptr getelementptr inbounds nuw (i8, ptr @slurmctld_config, i64 324), align 4
  %6 = icmp sgt i32 %5, 0
  br i1 %6, label %7, label %9

7:                                                ; preds = %4
  %8 = add nsw i32 %5, -1
  store i32 %8, ptr getelementptr inbounds nuw (i8, ptr @slurmctld_config, i64 324), align 4
  br label %11

9:                                                ; preds = %4
  %10 = tail call i32 (ptr, ...) @error(ptr noundef nonnull @.str.68) #19
  br label %11

11:                                               ; preds = %7, %9
  %12 = tail call i32 @pthread_cond_broadcast(ptr noundef nonnull getelementptr inbounds nuw (i8, ptr @slurmctld_config, i64 344)) #19
  %.not9 = icmp eq i32 %12, 0
  br i1 %.not9, label %16, label %13

13:                                               ; preds = %11
  %14 = tail call ptr @__errno_location() #21
  store i32 %12, ptr %14, align 4
  %15 = tail call i32 (ptr, ...) @error(ptr noundef nonnull @.str.61, ptr noundef nonnull @.str.59, i32 noundef 1753, ptr noundef nonnull @__func__.server_thread_decr) #19
  br label %16

16:                                               ; preds = %13, %11
  %17 = tail call i32 @pthread_mutex_unlock(ptr noundef nonnull getelementptr inbounds nuw (i8, ptr @slurmctld_config, i64 392)) #19
  %.not10 = icmp eq i32 %17, 0
  br i1 %.not10, label %20, label %18

18:                                               ; preds = %16
  %19 = tail call ptr @__errno_location() #21
  store i32 %17, ptr %19, align 4
  tail call void (ptr, ...) @fatal_abort(ptr noundef nonnull @.str.44, ptr noundef nonnull @__func__.server_thread_decr) #20
  unreachable

20:                                               ; preds = %16
  ret void
}